target datalayout = "e-m:e-p270:32:32-p271:32:32-p272:64:64-i64:64-i128:128-f80:128-n8:16:32:64-S128"
target triple = "x86_64-pc-linux-gnu"

@proto_register_esl.ett = internal global [1 x ptr] [ptr @ett_esl], align 8
@.str.8 = private unnamed_addr constant [21 x i8] c"EtherCAT Switch Link\00", align 1
@.str.9 = private unnamed_addr constant [4 x i8] c"ESL\00", align 1
@.str.10 = private unnamed_addr constant [4 x i8] c"esl\00", align 1
@proto_esl = hidden global i32 0, align 4
@.str.11 = private unnamed_addr constant [7 x i8] c"enable\00", align 1

; Function Attrs: null_pointer_is_valid sspstrong uwtable
define hidden void @proto_register_esl() #0 {
  %1 = alloca ptr, align 8
  call void @llvm.lifetime.start.p0(i64 8, ptr %1) #5
  %2 = call i32 @proto_register_protocol(ptr noundef @.str.8, ptr noundef @.str.9, ptr noundef @.str.10)
  store i32 %2, ptr @proto_esl, align 4
  %3 = load i32, ptr @proto_esl, align 4
  %4 = call ptr @prefs_register_protocol_obsolete(i32 noundef %3)
  store ptr %4, ptr %1, align 8
  %5 = load ptr, ptr %1, align 8
  call void @prefs_register_obsolete_preference(ptr noundef %5, ptr noundef @.str.11)
  %6 = load i32, ptr @proto_esl, align 4
  call void @proto_register_field_array(i32 noundef %6, ptr noundef @proto_register_esl.hf, i32 noundef 4)
  call void @proto_register_subtree_array(ptr noundef @proto_register_esl.ett, i32 noundef 1)
  %7 = load i32, ptr @proto_esl, align 4
  %8 = call ptr @register_dissector(ptr noundef @.str.10, ptr noundef @dissect_esl_header, i32 noundef %7)
  call void @llvm.lifetime.end.p0(i64 8, ptr %1) #5
  ret void
}