; Function Attrs: null_pointer_is_valid sspstrong uwtable
define hidden void @proto_register_esl() local_unnamed_addr #0 {
  %1 = tail call i32 @proto_register_protocol(ptr noundef nonnull @.str.8, ptr noundef nonnull @.str.9, ptr noundef nonnull @.str.10)
  store i32 %1, ptr @proto_esl, align 4
  %2 = tail call ptr @prefs_register_protocol_obsolete(i32 noundef %1)
  tail call void @prefs_register_obsolete_preference(ptr noundef %2, ptr noundef nonnull @.str.11)
  %3 = load i32, ptr @proto_esl, align 4
  tail call void @proto_register_field_array(i32 noundef %3, ptr noundef nonnull @proto_register_esl.hf, i32 noundef 4)
  tail call void @proto_register_subtree_array(ptr noundef nonnull @proto_register_esl.ett, i32 noundef 1)
  %4 = load i32, ptr @proto_esl, align 4
  %5 = tail call ptr @register_dissector(ptr noundef nonnull @.str.10, ptr noundef nonnull @dissect_esl_header, i32 noundef %4)
  ret void
}